target datalayout = "e-m:e-p270:32:32-p271:32:32-p272:64:64-i64:64-i128:128-f80:128-n8:16:32:64-S128"
target triple = "x86_64-pc-linux-gnu"

%struct.FT_ListRec_ = type { ptr, ptr }
%struct.FT_CharMapRec_ = type { ptr, i32, i16, i16 }
%struct.T1_FaceRec_ = type { %struct.FT_FaceRec_, %struct.T1_FontRec_, ptr, ptr, ptr, [2 x %struct.FT_CharMapRec_], [2 x ptr], ptr, i32, i32, i32, ptr, ptr }
%struct.FT_FaceRec_ = type { i64, i64, i64, i64, i64, ptr, ptr, i32, ptr, i32, ptr, %struct.FT_Generic_, %struct.FT_BBox_, i16, i16, i16, i16, i16, i16, i16, i16, ptr, ptr, ptr, ptr, ptr, ptr, %struct.FT_ListRec_, %struct.FT_Generic_, ptr, ptr }
%struct.FT_BBox_ = type { i64, i64, i64, i64 }
%struct.FT_Generic_ = type { ptr, ptr }
%struct.T1_FontRec_ = type { %struct.PS_FontInfoRec_, %struct.PS_FontExtraRec_, %struct.PS_PrivateRec_, ptr, i32, %struct.T1_EncodingRecRec_, ptr, ptr, ptr, i32, ptr, ptr, ptr, i32, ptr, ptr, ptr, i8, i8, %struct.FT_Matrix_, %struct.FT_Vector_, %struct.FT_BBox_, i64, i64 }
%struct.PS_FontInfoRec_ = type { ptr, ptr, ptr, ptr, ptr, i64, i8, i16, i16 }
%struct.PS_FontExtraRec_ = type { i16 }
%struct.PS_PrivateRec_ = type { i32, i32, i8, i8, i8, i8, [14 x i16], [10 x i16], [14 x i16], [10 x i16], i64, i32, i32, [1 x i16], [1 x i16], i8, i8, i8, i8, [13 x i16], [13 x i16], i64, i64, i64, [2 x i16] }
%struct.T1_EncodingRecRec_ = type { i32, i32, i32, ptr, ptr }
%struct.FT_Matrix_ = type { i64, i64, i64, i64 }
%struct.FT_Vector_ = type { i64, i64 }
%struct.PS_BlendRec_ = type { i32, i32, [4 x ptr], [16 x ptr], [4 x %struct.PS_DesignMap_], ptr, ptr, [17 x ptr], [17 x ptr], i64, [17 x ptr], [16 x i32], i32 }
%struct.PS_DesignMap_ = type { i8, ptr, ptr }

; Function Attrs: nounwind uwtable
define internal i32 @T1_Get_MM_WeightVector(ptr noundef %0, ptr noundef %1, ptr noundef %2) #0 {
  %4 = alloca i32, align 4
  %5 = alloca ptr, align 8
  %6 = alloca ptr, align 8
  %7 = alloca ptr, align 8
  %8 = alloca ptr, align 8
  %9 = alloca ptr, align 8
  %10 = alloca i32, align 4
  store ptr %0, ptr %5, align 8
  store ptr %1, ptr %6, align 8
  store ptr %2, ptr %7, align 8
  %11 = load ptr, ptr %5, align 8
  store ptr %11, ptr %8, align 8
  %12 = load ptr, ptr %8, align 8
  %13 = getelementptr inbounds %struct.T1_FaceRec_, ptr %12, i32 0, i32 7
  %14 = load ptr, ptr %13, align 8
  store ptr %14, ptr %9, align 8
  %15 = load ptr, ptr %9, align 8
  %16 = icmp ne ptr %15, null
  br i1 %16, label %18, label %17

17:                                               ; preds = %3
  store i32 6, ptr %4, align 4
  br label %71

18:                                               ; preds = %3
  %19 = load ptr, ptr %6, align 8
  %20 = load i32, ptr %19, align 4
  %21 = load ptr, ptr %9, align 8
  %22 = getelementptr inbounds %struct.PS_BlendRec_, ptr %21, i32 0, i32 0
  %23 = load i32, ptr %22, align 8
  %24 = icmp ult i32 %20, %23
  br i1 %24, label %25, label %30

25:                                               ; preds = %18
  %26 = load ptr, ptr %9, align 8
  %27 = getelementptr inbounds %struct.PS_BlendRec_, ptr %26, i32 0, i32 0
  %28 = load i32, ptr %27, align 8
  %29 = load ptr, ptr %6, align 8
  store i32 %28, ptr %29, align 4
  store i32 6, ptr %4, align 4
  br label %71

30:                                               ; preds = %18
  store i32 0, ptr %10, align 4
  br label %31

31:                                               ; preds = %49, %30
  %32 = load i32, ptr %10, align 4
  %33 = load ptr, ptr %9, align 8
  %34 = getelementptr inbounds %struct.PS_BlendRec_, ptr %33, i32 0, i32 0
  %35 = load i32, ptr %34, align 8
  %36 = icmp ult i32 %32, %35
  br i1 %36, label %37, label %52

37:                                               ; preds = %31
  %38 = load ptr, ptr %9, align 8
  %39 = getelementptr inbounds %struct.PS_BlendRec_, ptr %38, i32 0, i32 5
  %40 = load ptr, ptr %39, align 8
  %41 = load i32, ptr %10, align 4
  %42 = zext i32 %41 to i64
  %43 = getelementptr inbounds i64, ptr %40, i64 %42
  %44 = load i64, ptr %43, align 8
  %45 = load ptr, ptr %7, align 8
  %46 = load i32, ptr %10, align 4
  %47 = zext i32 %46 to i64
  %48 = getelementptr inbounds i64, ptr %45, i64 %47
  store i64 %44, ptr %48, align 8
  br label %49

49:                                               ; preds = %37
  %50 = load i32, ptr %10, align 4
  %51 = add i32 %50, 1
  store i32 %51, ptr %10, align 4
  br label %31, !llvm.loop !24

52:                                               ; preds = %31
  br label %53

53:                                               ; preds = %63, %52
  %54 = load i32, ptr %10, align 4
  %55 = load ptr, ptr %6, align 8
  %56 = load i32, ptr %55, align 4
  %57 = icmp ult i32 %54, %56
  br i1 %57, label %58, label %66

58:                                               ; preds = %53
  %59 = load ptr, ptr %7, align 8
  %60 = load i32, ptr %10, align 4
  %61 = zext i32 %60 to i64
  %62 = getelementptr inbounds i64, ptr %59, i64 %61
  store i64 0, ptr %62, align 8
  br label %63

63:                                               ; preds = %58
  %64 = load i32, ptr %10, align 4
  %65 = add i32 %64, 1
  store i32 %65, ptr %10, align 4
  br label %53, !llvm.loop !25

66:                                               ; preds = %53
  %67 = load ptr, ptr %9, align 8
  %68 = getelementptr inbounds %struct.PS_BlendRec_, ptr %67, i32 0, i32 0
  %69 = load i32, ptr %68, align 8
  %70 = load ptr, ptr %6, align 8
  store i32 %69, ptr %70, align 4
  store i32 0, ptr %4, align 4
  br label %71

71:                                               ; preds = %66, %25, %17
  %72 = load i32, ptr %4, align 4
  ret i32 %72
}