; Function Attrs: nofree norecurse nosync nounwind memory(read, argmem: readwrite, inaccessiblemem: none) uwtable
define internal range(i32 0, 7) i32 @T1_Get_MM_WeightVector(ptr nocapture noundef readonly %0, ptr nocapture noundef %1, ptr nocapture noundef writeonly %2) #4 {
  %4 = getelementptr inbounds i8, ptr %0, i64 848
  %5 = load ptr, ptr %4, align 8
  %.not = icmp eq ptr %5, null
  br i1 %.not, label %28, label %6

6:                                                ; preds = %3
  %7 = load i32, ptr %1, align 4
  %8 = load i32, ptr %5, align 8
  %9 = icmp ult i32 %7, %8
  br i1 %9, label %.sink.split, label %.preheader24

.preheader24:                                     ; preds = %6
  %.not28 = icmp eq i32 %8, 0
  br i1 %.not28, label %.preheader, label %.lr.ph

.lr.ph:                                           ; preds = %.preheader24
  %10 = getelementptr inbounds i8, ptr %5, i64 264
  br label %16

.preheader.loopexit:                              ; preds = %16
  %11 = trunc nuw i64 %indvars.iv.next to i32
  %.pre = load i32, ptr %1, align 4
  br label %.preheader

.preheader:                                       ; preds = %.preheader.loopexit, %.preheader24
  %12 = phi i32 [ 0, %.preheader24 ], [ %21, %.preheader.loopexit ]
  %13 = phi i32 [ %7, %.preheader24 ], [ %.pre, %.preheader.loopexit ]
  %.0.lcssa = phi i32 [ 0, %.preheader24 ], [ %11, %.preheader.loopexit ]
  %14 = icmp ult i32 %.0.lcssa, %13
  br i1 %14, label %.lr.ph27.preheader, label %.sink.split

.lr.ph27.preheader:                               ; preds = %.preheader
  %15 = zext i32 %.0.lcssa to i64
  br label %.lr.ph27

16:                                               ; preds = %.lr.ph, %16
  %indvars.iv = phi i64 [ 0, %.lr.ph ], [ %indvars.iv.next, %16 ]
  %17 = load ptr, ptr %10, align 8
  %18 = getelementptr inbounds i64, ptr %17, i64 %indvars.iv
  %19 = load i64, ptr %18, align 8
  %20 = getelementptr inbounds i64, ptr %2, i64 %indvars.iv
  store i64 %19, ptr %20, align 8
  %indvars.iv.next = add nuw nsw i64 %indvars.iv, 1
  %21 = load i32, ptr %5, align 8
  %22 = zext i32 %21 to i64
  %23 = icmp ult i64 %indvars.iv.next, %22
  br i1 %23, label %16, label %.preheader.loopexit, !llvm.loop !31

.lr.ph27:                                         ; preds = %.lr.ph27.preheader, %.lr.ph27
  %indvars.iv30 = phi i64 [ %15, %.lr.ph27.preheader ], [ %indvars.iv.next31, %.lr.ph27 ]
  %24 = getelementptr inbounds i64, ptr %2, i64 %indvars.iv30
  store i64 0, ptr %24, align 8
  %indvars.iv.next31 = add nuw nsw i64 %indvars.iv30, 1
  %25 = load i32, ptr %1, align 4
  %26 = zext i32 %25 to i64
  %27 = icmp ult i64 %indvars.iv.next31, %26
  br i1 %27, label %.lr.ph27, label %._crit_edge.loopexit, !llvm.loop !32

._crit_edge.loopexit:                             ; preds = %.lr.ph27
  %.pre33 = load i32, ptr %5, align 8
  br label %.sink.split

.sink.split:                                      ; preds = %.preheader, %._crit_edge.loopexit, %6
  %.sink = phi i32 [ %8, %6 ], [ %.pre33, %._crit_edge.loopexit ], [ %12, %.preheader ]
  %.021.ph = phi i32 [ 6, %6 ], [ 0, %._crit_edge.loopexit ], [ 0, %.preheader ]
  store i32 %.sink, ptr %1, align 4
  br label %28

28:                                               ; preds = %.sink.split, %3
  %.021 = phi i32 [ 6, %3 ], [ %.021.ph, %.sink.split ]
  ret i32 %.021
}